; Function Attrs: mustprogress nofree norecurse nosync nounwind willreturn memory(read, inaccessiblemem: none) uwtable
define ptr @usearch_getBreakIterator_75(ptr noundef readonly %strsrch) local_unnamed_addr #5 {
entry:
  %tobool.not = icmp eq ptr %strsrch, null
  br i1 %tobool.not, label %return, label %if.then

if.then:                                          ; preds = %entry
  %0 = load ptr, ptr %strsrch, align 8
  %breakIter = getelementptr inbounds i8, ptr %0, i64 24
  %1 = load ptr, ptr %breakIter, align 8
  br label %return

return:                                           ; preds = %entry, %if.then
  %retval.0 = phi ptr [ %1, %if.then ], [ null, %entry ]
  ret ptr %retval.0
}